
EXPORTS 
	DllEntryPoint
	DllMain
	MCC_TPtrError
	GetMathAccel
	GetCPUClock
	MFloat_Init
	MRTC_DLLAttachProcess
	MRTC_DLLDetachProcess
	MRTC_GetClassContainer
	MemSetW
	MemSetD
	MFloat_GetSineTable
	SIMD_Sqrt8
	MFloat_GetRand
	SIMD_RecpSqrt8
	SIMD_ConvertRGB	
	?fsqrt@CMathAccel@@QBEMM@Z
	?FastDivFp32Int@CMathAccel@@QAEHMH@Z
	??1CHash2D@@UAE@XZ
	??0CHash2D@@QAE@XZ
	?Create@CHash2D@@QAEXHHH_N@Z
	?Insert@CHash2D@@QAEXHABV?$TVector3@MV?$TMatrix4@MVCTypeDesc_fp32@@@@VCTypeDesc_fp32@@@@0@Z
	?EnumerateBox@CHash2D@@QAEHABV?$TVector3@MV?$TMatrix4@MVCTypeDesc_fp32@@@@VCTypeDesc_fp32@@@@0PAJH@Z
	?InitInverseTable_fp32@CMathAccel@@QAEXXZ
	?CutFence@@YIHPAV?$TVector3@MV?$TMatrix4@MVCTypeDesc_fp32@@@@VCTypeDesc_fp32@@@@HPBV?$TPlane3@MV?$TVector3@MV?$TMatrix4@MVCTypeDesc_fp32@@@@VCTypeDesc_fp32@@@@V?$TMatrix4@MVCTypeDesc_fp32@@@@@@H_NPAV?$TVector2@MV?$TMatrix2@MVCTypeDesc_fp32@@@@VCTypeDesc_fp32@@@@33@Z
	?CutFence@@YIHPAV?$TVector3@NV?$TMatrix4@NVCTypeDesc_fp64@@@@VCTypeDesc_fp64@@@@HPBV?$TPlane3@NV?$TVector3@NV?$TMatrix4@NVCTypeDesc_fp64@@@@VCTypeDesc_fp64@@@@V?$TMatrix4@NVCTypeDesc_fp64@@@@@@HAAH@Z
	??0CDA_CircularStack@@QAE@XZ
	??1CDA_CircularStack@@UAE@XZ
	?Get@CDA_CircularStack@@QAEPAVCDA_Linkable@@XZ
	?Next@CDA_CircularStack@@QAEXXZ
	?Add@CDA_CircularStack@@QAEXPAVCDA_Linkable@@@Z
	?Remove@CDA_CircularStack@@QAEXPAVCDA_Linkable@@@Z
	??0CStream_SubFile@@QAE@XZ
	??2CStream_SubFile@@SIPAXI@Z
	??2CStream_SubFile@@SIPAXIPBDH@Z
	?SIMD_Recp8@@YIXPAM0H@Z
	?SIMD_ConvertRGBA@@YIXPBV?$TVector4@MV?$TMatrix4@MVCTypeDesc_fp32@@@@VCTypeDesc_fp32@@@@PAKH@Z
	?MFloat_GetRandTable@@YIPBMXZ
	?SSE_Multiply_McMc_4x4@@YIXABV?$TMatrix4@MVCTypeDesc_fp32@@@@0AAV1@@Z
	?SSE_Multiply_VcMc_4x3@@YIXABV?$TVector3@MV?$TMatrix4@MVCTypeDesc_fp32@@@@VCTypeDesc_fp32@@@@ABV?$TMatrix4@MVCTypeDesc_fp32@@@@AAV1@@Z
	??1CFileAsyncCopy@@QAE@XZ
	?Done@CFileAsyncCopy@@QAE_NXZ
	?CpyFile@CFileAsyncCopy@@QAE_NPBD0H@Z
	??0CFileAsyncCopy@@QAE@XZ
	?SIMD_Max@@YIHPBEHH@Z
	?SIMD_Max@@YIHPBFHH@Z
	??3CStream_SubFile@@SIXPAXPBDH@Z
	??3CStream_SubFile@@SIXPAX@Z