EXPORTS
	DllEntryPoint
	DllMain
	MRTC_DLLAttachProcess
	MRTC_DLLDetachProcess
	MRTC_GetClassContainer
	ConsoleWrite
	ConsoleWriteL
	Localize_GetKey
	Localize_FindKeyValue
	Localize_GetParams
	Localize_SubstituteKeys
	?Localize_HasKey@@YA_NPBD@Z
	?Localize_HasKey@@YA_NPBG@Z
	?Localize_HasKey@@YA_NVCStr@@@Z
	?Localize_Str@@YA?AVCStr@@V1@@Z
	?Localize_Str@@YAXPBDPAGH@Z
	?Localize_Str@@YAXPBGPAGH@Z
	?Localize_Str@@YAXVCStr@@PAGH@Z
	?Localize_KeyExists@@YA_NPBD@Z
	?ModeList_GetDesc@CDisplayContext@@UAEABVCDC_VideoMode@@H@Z
	?ModeList_GetNumModes@CDisplayContext@@UAEHXZ
	?ModeList_DeleteFormat@CDisplayContext@@UAEXH@Z
	?ModeList_Find@CDisplayContext@@UAEHHHHH@Z
	?GetMode@CDisplayContext@@UAEHXZ
	??1CDisplayContext@@UAE@XZ
	??0CDisplayContext@@QAE@XZ
	?Create@CDisplayContext@@UAEXXZ
	?SetMode@CDisplayContext@@UAEXH@Z
	?PageFlip@CDisplayContext@@UAEHXZ
	?CaptureScreenshot@CDisplayContext@@UAEXXZ
	?IsFullScreen@CDisplayContext@@UAE_NXZ
	;?Read_XCR@CRegistryCompiled@@QAEXPBD@Z
	;?Write_XCR@CRegistryCompiled@@QAEXPBD@Z
	;?Compile@CRegistryCompiled@@QAEXPAVCRegistry@@@Z
	;??0CRegistryCompiled@@QAE@XZ
	;??1CRegistryCompiled@@UAE@XZ
	?Compare@spCDC_VideoMode@@QBEHABV1@@Z
	?GetOrCreateMaterial@CMaterialParams@CSC_SFXDesc@@QAEPAVCMaterialWaveHolder@12@E@Z
	?SetScreenRatio@CDisplayContext@@UAEXHHM@Z
	;?GetRoot@CRegistryCompiled@@QAE?AV?$TPtr2@VCRegistry@@VCVirtualRefCount@@@@XZ
	?SetDefault@CFilter@CSoundContext@@QAEXXZ
	?MCreateSoundContext@@YA?AV?$TPtr@VCSoundContext@@@@VCStr@@H@Z
	?GetImageIO@CImageIO@@SA?AV?$TPtr@VCImageIO@@@@ABVCStr@@@Z
	?CreateImageIO@CImageIO@@SA?AV?$TPtr@VCImageIO@@@@ABVCStr@@@Z
	??0CSC_3DOcclusion@@QAE@XZ
	?SetDefault@CSC_3DOcclusion@@QAEXXZ
	??0CMinMax@CFilter@CSoundContext@@QAE@XZ
	?Evaluate@CFunctionSymbol@CRegisterContext@NScript@@UAEXAAVCExecutionContext@3@@Z
	??1CSymbol@NScript@@UAE@XZ
	??0CSymbol@NScript@@QAE@PAV01@PBD@Z	
	?Evaluate@CConstantSymbol@CRegisterContext@NScript@@UAEXAAVCExecutionContext@3@@Z
	?EvaluateSet@CVariableSymbol@CRegisterContext@NScript@@UAEXAAVCExecutionContext@3@@Z
	?Evaluate@CVariableSymbol@CRegisterContext@NScript@@UAEXAAVCExecutionContext@3@@Z
	?Execute@CExecutionContext@NScript@@QAE_NXZ
	?Stretch@CImage@@SAXPAV1@0HH@Z
	?fv_GetDigest@CMD5@@UBEXPAE@Z
	?fv_AddData@CMD5@@UAEXPBXI@Z
	?SetResolveRect@CRC_RenderTargetDesc@@QAEXVCRct@@@Z
	?SetRenderTarget@CRC_RenderTargetDesc@@QAEXHHABV?$TVector4@M@@KK@Z
	?Clear@CRC_RenderTargetDesc@@QAEXXZ
